target datalayout = "e-m:e-p270:32:32-p271:32:32-p272:64:64-i64:64-i128:128-f80:128-n8:16:32:64-S128"
target triple = "x86_64-pc-linux-gnu"

@_ui_panel_config_names = global [6 x ptr] [ptr @.str, ptr @.str.1, ptr @.str.2, ptr @.str.3, ptr @.str.4, ptr @.str.5], align 16
@.str.84 = private unnamed_addr constant [6 x i8] c"_size\00", align 1
@.str.182 = private unnamed_addr constant [1 x i8] zeroinitializer, align 1
@.str.247 = private unnamed_addr constant [17 x i8] c"max_panel_height\00", align 1
@.str.248 = private unnamed_addr constant [17 x i8] c"min_panel_height\00", align 1
@.str.274 = private unnamed_addr constant [5 x i8] c"%s%s\00", align 1

; Function Attrs: nounwind uwtable
define internal ptr @_panels_get_panel_path(i32 noundef %0, ptr noundef %1) #0 {
  %3 = alloca ptr, align 8
  %4 = alloca i32, align 4
  %5 = alloca ptr, align 8
  %6 = alloca ptr, align 8
  %7 = alloca i32, align 4
  store i32 %0, ptr %4, align 4, !tbaa !17
  store ptr %1, ptr %5, align 8, !tbaa !11
  call void @llvm.lifetime.start.p0(i64 8, ptr %6) #15
  %8 = call ptr @_panels_get_view_path(ptr noundef @.str.182)
  store ptr %8, ptr %6, align 8, !tbaa !11
  %9 = load ptr, ptr %6, align 8, !tbaa !11
  %10 = icmp ne ptr %9, null
  br i1 %10, label %12, label %11

11:                                               ; preds = %2
  store ptr null, ptr %3, align 8
  store i32 1, ptr %7, align 4
  br label %19

12:                                               ; preds = %2
  %13 = load i32, ptr %4, align 4, !tbaa !17
  %14 = zext i32 %13 to i64
  %15 = getelementptr inbounds nuw [6 x ptr], ptr @_ui_panel_config_names, i64 0, i64 %14
  %16 = load ptr, ptr %15, align 8, !tbaa !11
  %17 = load ptr, ptr %5, align 8, !tbaa !11
  call void (ptr, ptr, ...) @dt_util_str_cat(ptr noundef %6, ptr noundef @.str.274, ptr noundef %16, ptr noundef %17)
  %18 = load ptr, ptr %6, align 8, !tbaa !11
  store ptr %18, ptr %3, align 8
  store i32 1, ptr %7, align 4
  br label %19

19:                                               ; preds = %12, %11
  call void @llvm.lifetime.end.p0(i64 8, ptr %6) #15
  %20 = load ptr, ptr %3, align 8
  ret ptr %20
}

; Function Attrs: nounwind uwtable
define internal void @_ui_init_bottom_panel_size(ptr noundef %0) #0 {
  %2 = alloca ptr, align 8
  %3 = alloca ptr, align 8
  %4 = alloca i32, align 4
  store ptr %0, ptr %2, align 8, !tbaa !6
  call void @llvm.lifetime.start.p0(i64 8, ptr %3) #15
  %5 = call ptr @_panels_get_panel_path(i32 noundef 5, ptr noundef @.str.84)
  store ptr %5, ptr %3, align 8, !tbaa !11
  call void @llvm.lifetime.start.p0(i64 4, ptr %4) #15
  store i32 120, ptr %4, align 4, !tbaa !17
  %6 = load ptr, ptr %3, align 8, !tbaa !11
  %7 = icmp ne ptr %6, null
  br i1 %7, label %8, label %33

8:                                                ; preds = %1
  %9 = load ptr, ptr %3, align 8, !tbaa !11
  %10 = call i32 @dt_conf_key_exists(ptr noundef %9)
  %11 = icmp ne i32 %10, 0
  br i1 %11, label %12, label %33

12:                                               ; preds = %8
  %13 = load ptr, ptr %3, align 8, !tbaa !11
  %14 = call i32 @dt_conf_get_int(ptr noundef %13)
  %15 = call i32 @dt_conf_get_int(ptr noundef @.str.247)
  %16 = icmp sgt i32 %14, %15
  br i1 %16, label %17, label %19

17:                                               ; preds = %12
  %18 = call i32 @dt_conf_get_int(ptr noundef @.str.247)
  br label %31

19:                                               ; preds = %12
  %20 = load ptr, ptr %3, align 8, !tbaa !11
  %21 = call i32 @dt_conf_get_int(ptr noundef %20)
  %22 = call i32 @dt_conf_get_int(ptr noundef @.str.248)
  %23 = icmp slt i32 %21, %22
  br i1 %23, label %24, label %26

24:                                               ; preds = %19
  %25 = call i32 @dt_conf_get_int(ptr noundef @.str.248)
  br label %29

26:                                               ; preds = %19
  %27 = load ptr, ptr %3, align 8, !tbaa !11
  %28 = call i32 @dt_conf_get_int(ptr noundef %27)
  br label %29

29:                                               ; preds = %26, %24
  %30 = phi i32 [ %25, %24 ], [ %28, %26 ]
  br label %31

31:                                               ; preds = %29, %17
  %32 = phi i32 [ %18, %17 ], [ %30, %29 ]
  store i32 %32, ptr %4, align 4, !tbaa !17
  br label %33

33:                                               ; preds = %31, %8, %1
  %34 = load ptr, ptr %2, align 8, !tbaa !6
  %35 = load i32, ptr %4, align 4, !tbaa !17
  call void @gtk_widget_set_size_request(ptr noundef %34, i32 noundef -1, i32 noundef %35)
  %36 = load ptr, ptr %3, align 8, !tbaa !11
  call void @g_free(ptr noundef %36)
  call void @llvm.lifetime.end.p0(i64 4, ptr %4) #15
  call void @llvm.lifetime.end.p0(i64 8, ptr %3) #15
  ret void
}