; Function Attrs: nounwind uwtable
define internal fastcc void @_ui_init_bottom_panel_size(ptr noundef %0) unnamed_addr #0 {
  %2 = alloca ptr, align 8
  call void @llvm.lifetime.start.p0(i64 8, ptr nonnull %2) #18
  %3 = tail call fastcc ptr @_panels_get_view_path(ptr noundef nonnull @.str.182)
  store ptr %3, ptr %2, align 8, !tbaa !126
  %.not.i = icmp eq ptr %3, null
  br i1 %.not.i, label %_panels_get_panel_path.exit.thread, label %_panels_get_panel_path.exit

_panels_get_panel_path.exit.thread:               ; preds = %1
  call void @llvm.lifetime.end.p0(i64 8, ptr nonnull %2) #18
  br label %22

_panels_get_panel_path.exit:                      ; preds = %1
  %4 = load ptr, ptr getelementptr inbounds nuw (i8, ptr @_ui_panel_config_names, i64 40), align 8, !tbaa !126
  call void (ptr, ptr, ...) @dt_util_str_cat(ptr noundef nonnull %2, ptr noundef nonnull @.str.274, ptr noundef %4, ptr noundef nonnull @.str.84) #18
  %5 = load ptr, ptr %2, align 8, !tbaa !126
  call void @llvm.lifetime.end.p0(i64 8, ptr nonnull %2) #18
  %.not = icmp eq ptr %5, null
  br i1 %.not, label %22, label %6

6:                                                ; preds = %_panels_get_panel_path.exit
  %7 = call i32 @dt_conf_key_exists(ptr noundef nonnull %5) #18
  %.not8 = icmp eq i32 %7, 0
  br i1 %.not8, label %22, label %8

8:                                                ; preds = %6
  %9 = call i32 @dt_conf_get_int(ptr noundef nonnull %5) #18
  %10 = call i32 @dt_conf_get_int(ptr noundef nonnull @.str.247) #18
  %11 = icmp sgt i32 %9, %10
  br i1 %11, label %12, label %14

12:                                               ; preds = %8
  %13 = call i32 @dt_conf_get_int(ptr noundef nonnull @.str.247) #18
  br label %22

14:                                               ; preds = %8
  %15 = call i32 @dt_conf_get_int(ptr noundef nonnull %5) #18
  %16 = call i32 @dt_conf_get_int(ptr noundef nonnull @.str.248) #18
  %17 = icmp slt i32 %15, %16
  br i1 %17, label %18, label %20

18:                                               ; preds = %14
  %19 = call i32 @dt_conf_get_int(ptr noundef nonnull @.str.248) #18
  br label %22

20:                                               ; preds = %14
  %21 = call i32 @dt_conf_get_int(ptr noundef nonnull %5) #18
  br label %22

22:                                               ; preds = %_panels_get_panel_path.exit.thread, %12, %20, %18, %6, %_panels_get_panel_path.exit
  %.0.i11 = phi ptr [ %5, %6 ], [ null, %_panels_get_panel_path.exit ], [ %5, %12 ], [ %5, %18 ], [ %5, %20 ], [ null, %_panels_get_panel_path.exit.thread ]
  %.0 = phi i32 [ 120, %6 ], [ 120, %_panels_get_panel_path.exit ], [ %13, %12 ], [ %19, %18 ], [ %21, %20 ], [ 120, %_panels_get_panel_path.exit.thread ]
  call void @gtk_widget_set_size_request(ptr noundef %0, i32 noundef -1, i32 noundef %.0) #18
  call void @g_free(ptr noundef %.0.i11) #18
  ret void
}